target datalayout = "e-m:e-p270:32:32-p271:32:32-p272:64:64-i64:64-i128:128-f80:128-n8:16:32:64-S128"
target triple = "x86_64-pc-linux-gnu"

%struct.dynbuf = type { ptr, i64, i64, i64 }

@Curl_cfree = external global ptr, align 8
@Curl_crealloc = external global ptr, align 8

; Function Attrs: nounwind uwtable
define dso_local void @Curl_dyn_free(ptr noundef %0) #0 {
  %2 = alloca ptr, align 8
  store ptr %0, ptr %2, align 8, !tbaa !4
  br label %3

3:                                                ; preds = %1
  br label %4

4:                                                ; preds = %3
  br label %5

5:                                                ; preds = %4
  %6 = load ptr, ptr @Curl_cfree, align 8, !tbaa !17
  %7 = load ptr, ptr %2, align 8, !tbaa !4
  %8 = getelementptr inbounds nuw %struct.dynbuf, ptr %7, i32 0, i32 0
  %9 = load ptr, ptr %8, align 8, !tbaa !11
  call void %6(ptr noundef %9)
  %10 = load ptr, ptr %2, align 8, !tbaa !4
  %11 = getelementptr inbounds nuw %struct.dynbuf, ptr %10, i32 0, i32 0
  store ptr null, ptr %11, align 8, !tbaa !11
  br label %12

12:                                               ; preds = %5
  %13 = load ptr, ptr %2, align 8, !tbaa !4
  %14 = getelementptr inbounds nuw %struct.dynbuf, ptr %13, i32 0, i32 2
  store i64 0, ptr %14, align 8, !tbaa !15
  %15 = load ptr, ptr %2, align 8, !tbaa !4
  %16 = getelementptr inbounds nuw %struct.dynbuf, ptr %15, i32 0, i32 1
  store i64 0, ptr %16, align 8, !tbaa !14
  ret void
}

; Function Attrs: nounwind uwtable
define internal i32 @dyn_nappend(ptr noundef %0, ptr noundef %1, i64 noundef %2) #0 {
  %4 = alloca i32, align 4
  %5 = alloca ptr, align 8
  %6 = alloca ptr, align 8
  %7 = alloca i64, align 8
  %8 = alloca i64, align 8
  %9 = alloca i64, align 8
  %10 = alloca i64, align 8
  %11 = alloca i32, align 4
  %12 = alloca ptr, align 8
  store ptr %0, ptr %5, align 8, !tbaa !4
  store ptr %1, ptr %6, align 8, !tbaa !19
  store i64 %2, ptr %7, align 8, !tbaa !9
  call void @llvm.lifetime.start.p0(i64 8, ptr %8) #6
  %13 = load ptr, ptr %5, align 8, !tbaa !4
  %14 = getelementptr inbounds nuw %struct.dynbuf, ptr %13, i32 0, i32 1
  %15 = load i64, ptr %14, align 8, !tbaa !14
  store i64 %15, ptr %8, align 8, !tbaa !9
  call void @llvm.lifetime.start.p0(i64 8, ptr %9) #6
  %16 = load ptr, ptr %5, align 8, !tbaa !4
  %17 = getelementptr inbounds nuw %struct.dynbuf, ptr %16, i32 0, i32 2
  %18 = load i64, ptr %17, align 8, !tbaa !15
  store i64 %18, ptr %9, align 8, !tbaa !9
  call void @llvm.lifetime.start.p0(i64 8, ptr %10) #6
  %19 = load i64, ptr %7, align 8, !tbaa !9
  %20 = load i64, ptr %8, align 8, !tbaa !9
  %21 = add i64 %19, %20
  %22 = add i64 %21, 1
  store i64 %22, ptr %10, align 8, !tbaa !9
  br label %23

23:                                               ; preds = %3
  br label %24

24:                                               ; preds = %23
  br label %25

25:                                               ; preds = %24
  br label %26

26:                                               ; preds = %25
  br label %27

27:                                               ; preds = %26
  br label %28

28:                                               ; preds = %27
  br label %29

29:                                               ; preds = %28
  br label %30

30:                                               ; preds = %29
  br label %31

31:                                               ; preds = %30
  br label %32

32:                                               ; preds = %31
  br label %33

33:                                               ; preds = %32
  br label %34

34:                                               ; preds = %33
  br label %35

35:                                               ; preds = %34
  br label %36

36:                                               ; preds = %35
  br label %37

37:                                               ; preds = %36
  br label %38

38:                                               ; preds = %37
  br label %39

39:                                               ; preds = %38
  br label %40

40:                                               ; preds = %39
  %41 = load i64, ptr %10, align 8, !tbaa !9
  %42 = load ptr, ptr %5, align 8, !tbaa !4
  %43 = getelementptr inbounds nuw %struct.dynbuf, ptr %42, i32 0, i32 3
  %44 = load i64, ptr %43, align 8, !tbaa !16
  %45 = icmp ugt i64 %41, %44
  br i1 %45, label %46, label %48

46:                                               ; preds = %40
  %47 = load ptr, ptr %5, align 8, !tbaa !4
  call void @Curl_dyn_free(ptr noundef %47)
  store i32 100, ptr %4, align 4
  store i32 1, ptr %11, align 4
  br label %142

48:                                               ; preds = %40
  %49 = load i64, ptr %9, align 8, !tbaa !9
  %50 = icmp ne i64 %49, 0
  br i1 %50, label %71, label %51

51:                                               ; preds = %48
  br label %52

52:                                               ; preds = %51
  br label %53

53:                                               ; preds = %52
  br label %54

54:                                               ; preds = %53
  %55 = load ptr, ptr %5, align 8, !tbaa !4
  %56 = getelementptr inbounds nuw %struct.dynbuf, ptr %55, i32 0, i32 3
  %57 = load i64, ptr %56, align 8, !tbaa !16
  %58 = icmp ugt i64 32, %57
  br i1 %58, label %59, label %63

59:                                               ; preds = %54
  %60 = load ptr, ptr %5, align 8, !tbaa !4
  %61 = getelementptr inbounds nuw %struct.dynbuf, ptr %60, i32 0, i32 3
  %62 = load i64, ptr %61, align 8, !tbaa !16
  store i64 %62, ptr %9, align 8, !tbaa !9
  br label %70

63:                                               ; preds = %54
  %64 = load i64, ptr %10, align 8, !tbaa !9
  %65 = icmp ult i64 %64, 32
  br i1 %65, label %66, label %67

66:                                               ; preds = %63
  store i64 32, ptr %9, align 8, !tbaa !9
  br label %69

67:                                               ; preds = %63
  %68 = load i64, ptr %10, align 8, !tbaa !9
  store i64 %68, ptr %9, align 8, !tbaa !9
  br label %69

69:                                               ; preds = %67, %66
  br label %70

70:                                               ; preds = %69, %59
  br label %90

71:                                               ; preds = %48
  br label %72

72:                                               ; preds = %76, %71
  %73 = load i64, ptr %9, align 8, !tbaa !9
  %74 = load i64, ptr %10, align 8, !tbaa !9
  %75 = icmp ult i64 %73, %74
  br i1 %75, label %76, label %79

76:                                               ; preds = %72
  %77 = load i64, ptr %9, align 8, !tbaa !9
  %78 = mul i64 %77, 2
  store i64 %78, ptr %9, align 8, !tbaa !9
  br label %72, !llvm.loop !20

79:                                               ; preds = %72
  %80 = load i64, ptr %9, align 8, !tbaa !9
  %81 = load ptr, ptr %5, align 8, !tbaa !4
  %82 = getelementptr inbounds nuw %struct.dynbuf, ptr %81, i32 0, i32 3
  %83 = load i64, ptr %82, align 8, !tbaa !16
  %84 = icmp ugt i64 %80, %83
  br i1 %84, label %85, label %89

85:                                               ; preds = %79
  %86 = load ptr, ptr %5, align 8, !tbaa !4
  %87 = getelementptr inbounds nuw %struct.dynbuf, ptr %86, i32 0, i32 3
  %88 = load i64, ptr %87, align 8, !tbaa !16
  store i64 %88, ptr %9, align 8, !tbaa !9
  br label %89

89:                                               ; preds = %85, %79
  br label %90

90:                                               ; preds = %89, %70
  br label %91

91:                                               ; preds = %90
  %92 = load i64, ptr %9, align 8, !tbaa !9
  %93 = load ptr, ptr %5, align 8, !tbaa !4
  %94 = getelementptr inbounds nuw %struct.dynbuf, ptr %93, i32 0, i32 2
  %95 = load i64, ptr %94, align 8, !tbaa !15
  %96 = icmp ne i64 %92, %95
  br i1 %96, label %97, label %118

97:                                               ; preds = %91
  call void @llvm.lifetime.start.p0(i64 8, ptr %12) #6
  %98 = load ptr, ptr @Curl_crealloc, align 8, !tbaa !17
  %99 = load ptr, ptr %5, align 8, !tbaa !4
  %100 = getelementptr inbounds nuw %struct.dynbuf, ptr %99, i32 0, i32 0
  %101 = load ptr, ptr %100, align 8, !tbaa !11
  %102 = load i64, ptr %9, align 8, !tbaa !9
  %103 = call ptr %98(ptr noundef %101, i64 noundef %102)
  store ptr %103, ptr %12, align 8, !tbaa !17
  %104 = load ptr, ptr %12, align 8, !tbaa !17
  %105 = icmp ne ptr %104, null
  br i1 %105, label %108, label %106

106:                                              ; preds = %97
  %107 = load ptr, ptr %5, align 8, !tbaa !4
  call void @Curl_dyn_free(ptr noundef %107)
  store i32 27, ptr %4, align 4
  store i32 1, ptr %11, align 4
  br label %115

108:                                              ; preds = %97
  %109 = load ptr, ptr %12, align 8, !tbaa !17
  %110 = load ptr, ptr %5, align 8, !tbaa !4
  %111 = getelementptr inbounds nuw %struct.dynbuf, ptr %110, i32 0, i32 0
  store ptr %109, ptr %111, align 8, !tbaa !11
  %112 = load i64, ptr %9, align 8, !tbaa !9
  %113 = load ptr, ptr %5, align 8, !tbaa !4
  %114 = getelementptr inbounds nuw %struct.dynbuf, ptr %113, i32 0, i32 2
  store i64 %112, ptr %114, align 8, !tbaa !15
  store i32 0, ptr %11, align 4
  br label %115

115:                                              ; preds = %108, %106
  call void @llvm.lifetime.end.p0(i64 8, ptr %12) #6
  %116 = load i32, ptr %11, align 4
  switch i32 %116, label %142 [
    i32 0, label %117
  ]

117:                                              ; preds = %115
  br label %118

118:                                              ; preds = %117, %91
  %119 = load i64, ptr %7, align 8, !tbaa !9
  %120 = icmp ne i64 %119, 0
  br i1 %120, label %121, label %129

121:                                              ; preds = %118
  %122 = load ptr, ptr %5, align 8, !tbaa !4
  %123 = getelementptr inbounds nuw %struct.dynbuf, ptr %122, i32 0, i32 0
  %124 = load ptr, ptr %123, align 8, !tbaa !11
  %125 = load i64, ptr %8, align 8, !tbaa !9
  %126 = getelementptr inbounds nuw i8, ptr %124, i64 %125
  %127 = load ptr, ptr %6, align 8, !tbaa !19
  %128 = load i64, ptr %7, align 8, !tbaa !9
  call void @llvm.memcpy.p0.p0.i64(ptr align 1 %126, ptr align 1 %127, i64 %128, i1 false)
  br label %129

129:                                              ; preds = %121, %118
  %130 = load i64, ptr %8, align 8, !tbaa !9
  %131 = load i64, ptr %7, align 8, !tbaa !9
  %132 = add i64 %130, %131
  %133 = load ptr, ptr %5, align 8, !tbaa !4
  %134 = getelementptr inbounds nuw %struct.dynbuf, ptr %133, i32 0, i32 1
  store i64 %132, ptr %134, align 8, !tbaa !14
  %135 = load ptr, ptr %5, align 8, !tbaa !4
  %136 = getelementptr inbounds nuw %struct.dynbuf, ptr %135, i32 0, i32 0
  %137 = load ptr, ptr %136, align 8, !tbaa !11
  %138 = load ptr, ptr %5, align 8, !tbaa !4
  %139 = getelementptr inbounds nuw %struct.dynbuf, ptr %138, i32 0, i32 1
  %140 = load i64, ptr %139, align 8, !tbaa !14
  %141 = getelementptr inbounds nuw i8, ptr %137, i64 %140
  store i8 0, ptr %141, align 1, !tbaa !18
  store i32 0, ptr %4, align 4
  store i32 1, ptr %11, align 4
  br label %142

142:                                              ; preds = %129, %115, %46
  call void @llvm.lifetime.end.p0(i64 8, ptr %10) #6
  call void @llvm.lifetime.end.p0(i64 8, ptr %9) #6
  call void @llvm.lifetime.end.p0(i64 8, ptr %8) #6
  %143 = load i32, ptr %4, align 4
  ret i32 %143
}

; Function Attrs: nounwind uwtable
define dso_local i32 @Curl_dyn_add(ptr noundef %0, ptr noundef %1) #0 {
  %3 = alloca ptr, align 8
  %4 = alloca ptr, align 8
  %5 = alloca i64, align 8
  store ptr %0, ptr %3, align 8, !tbaa !4
  store ptr %1, ptr %4, align 8, !tbaa !19
  call void @llvm.lifetime.start.p0(i64 8, ptr %5) #6
  br label %6

6:                                                ; preds = %2
  br label %7

7:                                                ; preds = %6
  br label %8

8:                                                ; preds = %7
  br label %9

9:                                                ; preds = %8
  br label %10

10:                                               ; preds = %9
  br label %11

11:                                               ; preds = %10
  br label %12

12:                                               ; preds = %11
  br label %13

13:                                               ; preds = %12
  br label %14

14:                                               ; preds = %13
  br label %15

15:                                               ; preds = %14
  br label %16

16:                                               ; preds = %15
  br label %17

17:                                               ; preds = %16
  %18 = load ptr, ptr %4, align 8, !tbaa !19
  %19 = call i64 @strlen(ptr noundef %18) #7
  store i64 %19, ptr %5, align 8, !tbaa !9
  %20 = load ptr, ptr %3, align 8, !tbaa !4
  %21 = load ptr, ptr %4, align 8, !tbaa !19
  %22 = load i64, ptr %5, align 8, !tbaa !9
  %23 = call i32 @dyn_nappend(ptr noundef %20, ptr noundef %21, i64 noundef %22)
  call void @llvm.lifetime.end.p0(i64 8, ptr %5) #6
  ret i32 %23
}